target datalayout = "e-m:e-p270:32:32-p271:32:32-p272:64:64-i64:64-i128:128-f80:128-n8:16:32:64-S128"
target triple = "x86_64-pc-linux-gnu"

%struct.AVFilterContext = type { ptr, ptr, ptr, ptr, ptr, i32, ptr, ptr, i32, ptr, ptr, i32, i32, ptr, ptr, ptr, ptr, i32, ptr, i32, i32 }
%struct.MixContext = type { ptr, ptr, i32, i32, i32, float, ptr, i32, i32, i32, i32, ptr, ptr, ptr, ptr, float, ptr, i64, ptr }

@.str.24 = private unnamed_addr constant [30 x i8] c"Assertion %s failed at %s:%d\0A\00", align 1
@.str.26 = private unnamed_addr constant [22 x i8] c"libavfilter/af_amix.c\00", align 1
@.str.29 = private unnamed_addr constant [17 x i8] c"s->nb_inputs > 1\00", align 1

; Function Attrs: nounwind uwtable
define internal i32 @request_samples(ptr noundef %0, i32 noundef %1) #1 {
  %3 = alloca i32, align 4
  %4 = alloca ptr, align 8
  %5 = alloca i32, align 4
  %6 = alloca ptr, align 8
  %7 = alloca i32, align 4
  %8 = alloca i32, align 4
  store ptr %0, ptr %4, align 8, !tbaa !4
  store i32 %1, ptr %5, align 4, !tbaa !24
  call void @llvm.lifetime.start.p0(i64 8, ptr %6) #9
  %9 = load ptr, ptr %4, align 8, !tbaa !4
  %10 = getelementptr inbounds nuw %struct.AVFilterContext, ptr %9, i32 0, i32 9
  %11 = load ptr, ptr %10, align 8, !tbaa !9
  store ptr %11, ptr %6, align 8, !tbaa !22
  call void @llvm.lifetime.start.p0(i64 4, ptr %7) #9
  br label %12

12:                                               ; preds = %2
  %13 = load ptr, ptr %6, align 8, !tbaa !22
  %14 = getelementptr inbounds nuw %struct.MixContext, ptr %13, i32 0, i32 2
  %15 = load i32, ptr %14, align 8, !tbaa !25
  %16 = icmp sgt i32 %15, 1
  br i1 %16, label %18, label %17

17:                                               ; preds = %12
  call void (ptr, i32, ptr, ...) @av_log(ptr noundef null, i32 noundef 0, ptr noundef @.str.24, ptr noundef @.str.29, ptr noundef @.str.26, i32 noundef 399)
  call void @abort() #11
  unreachable

18:                                               ; preds = %12
  br label %19

19:                                               ; preds = %18
  br label %20

20:                                               ; preds = %19
  %21 = load i32, ptr %5, align 4, !tbaa !24
  %22 = icmp eq i32 %21, 1
  br i1 %22, label %23, label %35

23:                                               ; preds = %20
  %24 = load ptr, ptr %6, align 8, !tbaa !22
  %25 = getelementptr inbounds nuw %struct.MixContext, ptr %24, i32 0, i32 4
  %26 = load i32, ptr %25, align 8, !tbaa !124
  %27 = icmp eq i32 %26, 2
  br i1 %27, label %28, label %35

28:                                               ; preds = %23
  %29 = load ptr, ptr %6, align 8, !tbaa !22
  %30 = getelementptr inbounds nuw %struct.MixContext, ptr %29, i32 0, i32 11
  %31 = load ptr, ptr %30, align 8, !tbaa !40
  %32 = getelementptr inbounds ptr, ptr %31, i64 0
  %33 = load ptr, ptr %32, align 8, !tbaa !41
  %34 = call i32 @av_audio_fifo_size(ptr noundef %33)
  store i32 %34, ptr %5, align 4, !tbaa !24
  br label %35

35:                                               ; preds = %28, %23, %20
  store i32 1, ptr %7, align 4, !tbaa !24
  br label %36

36:                                               ; preds = %85, %35
  %37 = load i32, ptr %7, align 4, !tbaa !24
  %38 = load ptr, ptr %6, align 8, !tbaa !22
  %39 = getelementptr inbounds nuw %struct.MixContext, ptr %38, i32 0, i32 2
  %40 = load i32, ptr %39, align 8, !tbaa !25
  %41 = icmp slt i32 %37, %40
  br i1 %41, label %42, label %88

42:                                               ; preds = %36
  %43 = load ptr, ptr %6, align 8, !tbaa !22
  %44 = getelementptr inbounds nuw %struct.MixContext, ptr %43, i32 0, i32 12
  %45 = load ptr, ptr %44, align 8, !tbaa !70
  %46 = load i32, ptr %7, align 4, !tbaa !24
  %47 = sext i32 %46 to i64
  %48 = getelementptr inbounds i8, ptr %45, i64 %47
  %49 = load i8, ptr %48, align 1, !tbaa !71
  %50 = zext i8 %49 to i32
  %51 = and i32 %50, 1
  %52 = icmp ne i32 %51, 0
  br i1 %52, label %53, label %64

53:                                               ; preds = %42
  %54 = load ptr, ptr %6, align 8, !tbaa !22
  %55 = getelementptr inbounds nuw %struct.MixContext, ptr %54, i32 0, i32 12
  %56 = load ptr, ptr %55, align 8, !tbaa !70
  %57 = load i32, ptr %7, align 4, !tbaa !24
  %58 = sext i32 %57 to i64
  %59 = getelementptr inbounds i8, ptr %56, i64 %58
  %60 = load i8, ptr %59, align 1, !tbaa !71
  %61 = zext i8 %60 to i32
  %62 = and i32 %61, 2
  %63 = icmp ne i32 %62, 0
  br i1 %63, label %64, label %65

64:                                               ; preds = %53, %42
  br label %85

65:                                               ; preds = %53
  %66 = load ptr, ptr %6, align 8, !tbaa !22
  %67 = getelementptr inbounds nuw %struct.MixContext, ptr %66, i32 0, i32 11
  %68 = load ptr, ptr %67, align 8, !tbaa !40
  %69 = load i32, ptr %7, align 4, !tbaa !24
  %70 = sext i32 %69 to i64
  %71 = getelementptr inbounds ptr, ptr %68, i64 %70
  %72 = load ptr, ptr %71, align 8, !tbaa !41
  %73 = call i32 @av_audio_fifo_size(ptr noundef %72)
  %74 = load i32, ptr %5, align 4, !tbaa !24
  %75 = icmp sge i32 %73, %74
  br i1 %75, label %76, label %77

76:                                               ; preds = %65
  br label %85

77:                                               ; preds = %65
  %78 = load ptr, ptr %4, align 8, !tbaa !4
  %79 = getelementptr inbounds nuw %struct.AVFilterContext, ptr %78, i32 0, i32 4
  %80 = load ptr, ptr %79, align 8, !tbaa !56
  %81 = load i32, ptr %7, align 4, !tbaa !24
  %82 = sext i32 %81 to i64
  %83 = getelementptr inbounds ptr, ptr %80, i64 %82
  %84 = load ptr, ptr %83, align 8, !tbaa !51
  call void @ff_inlink_request_frame(ptr noundef %84)
  store i32 0, ptr %3, align 4
  store i32 1, ptr %8, align 4
  br label %95

85:                                               ; preds = %76, %64
  %86 = load i32, ptr %7, align 4, !tbaa !24
  %87 = add nsw i32 %86, 1
  store i32 %87, ptr %7, align 4, !tbaa !24
  br label %36, !llvm.loop !125

88:                                               ; preds = %36
  %89 = load ptr, ptr %4, align 8, !tbaa !4
  %90 = getelementptr inbounds nuw %struct.AVFilterContext, ptr %89, i32 0, i32 7
  %91 = load ptr, ptr %90, align 8, !tbaa !50
  %92 = getelementptr inbounds ptr, ptr %91, i64 0
  %93 = load ptr, ptr %92, align 8, !tbaa !51
  %94 = call i32 @output_frame(ptr noundef %93)
  store i32 %94, ptr %3, align 4
  store i32 1, ptr %8, align 4
  br label %95

95:                                               ; preds = %88, %77
  call void @llvm.lifetime.end.p0(i64 4, ptr %7) #9
  call void @llvm.lifetime.end.p0(i64 8, ptr %6) #9
  %96 = load i32, ptr %3, align 4
  ret i32 %96
}