; Function Attrs: nounwind uwtable
define internal fastcc i32 @request_samples(ptr noundef readonly captures(none) %0, i32 noundef %1) unnamed_addr #1 {
  %3 = getelementptr inbounds nuw i8, ptr %0, i64 72
  %4 = load ptr, ptr %3, align 8, !tbaa !4
  %5 = getelementptr inbounds nuw i8, ptr %4, i64 16
  %6 = load i32, ptr %5, align 8, !tbaa !20
  %7 = icmp sgt i32 %6, 1
  br i1 %7, label %9, label %8

8:                                                ; preds = %2
  tail call void (ptr, i32, ptr, ...) @av_log(ptr noundef null, i32 noundef 0, ptr noundef nonnull @.str.24, ptr noundef nonnull @.str.29, ptr noundef nonnull @.str.26, i32 noundef 399) #9
  tail call void @abort() #11
  unreachable

9:                                                ; preds = %2
  %10 = icmp eq i32 %1, 1
  br i1 %10, label %11, label %.lr.ph

11:                                               ; preds = %9
  %12 = getelementptr inbounds nuw i8, ptr %4, i64 24
  %13 = load i32, ptr %12, align 8, !tbaa !85
  %14 = icmp eq i32 %13, 2
  br i1 %14, label %15, label %.lr.ph

15:                                               ; preds = %11
  %16 = getelementptr inbounds nuw i8, ptr %4, i64 56
  %17 = load ptr, ptr %16, align 8, !tbaa !42
  %18 = load ptr, ptr %17, align 8, !tbaa !43
  %19 = tail call i32 @av_audio_fifo_size(ptr noundef %18) #9
  %.pre = load i32, ptr %5, align 8, !tbaa !20
  %20 = icmp sgt i32 %.pre, 1
  br i1 %20, label %.lr.ph, label %._crit_edge

.lr.ph:                                           ; preds = %9, %11, %15
  %.01929 = phi i32 [ %19, %15 ], [ %1, %9 ], [ 1, %11 ]
  %21 = phi i32 [ %.pre, %15 ], [ %6, %9 ], [ %6, %11 ]
  %22 = getelementptr inbounds nuw i8, ptr %4, i64 64
  %23 = getelementptr inbounds nuw i8, ptr %4, i64 56
  br label %24

24:                                               ; preds = %.lr.ph, %40
  %25 = phi i32 [ %21, %.lr.ph ], [ %41, %40 ]
  %indvars.iv = phi i64 [ 1, %.lr.ph ], [ %indvars.iv.next, %40 ]
  %26 = load ptr, ptr %22, align 8, !tbaa !79
  %27 = getelementptr inbounds nuw i8, ptr %26, i64 %indvars.iv
  %28 = load i8, ptr %27, align 1, !tbaa !39
  %29 = and i8 %28, 3
  %or.cond = icmp eq i8 %29, 1
  br i1 %or.cond, label %30, label %40

30:                                               ; preds = %24
  %31 = load ptr, ptr %23, align 8, !tbaa !42
  %32 = getelementptr inbounds nuw ptr, ptr %31, i64 %indvars.iv
  %33 = load ptr, ptr %32, align 8, !tbaa !43
  %34 = tail call i32 @av_audio_fifo_size(ptr noundef %33) #9
  %.not22 = icmp slt i32 %34, %.01929
  br i1 %.not22, label %35, label %._crit_edge26

._crit_edge26:                                    ; preds = %30
  %.pre27 = load i32, ptr %5, align 8, !tbaa !20
  br label %40

35:                                               ; preds = %30
  %36 = getelementptr inbounds nuw i8, ptr %0, i64 32
  %37 = load ptr, ptr %36, align 8, !tbaa !64
  %38 = getelementptr inbounds nuw ptr, ptr %37, i64 %indvars.iv
  %39 = load ptr, ptr %38, align 8, !tbaa !59
  tail call void @ff_inlink_request_frame(ptr noundef %39) #9
  br label %48

40:                                               ; preds = %._crit_edge26, %24
  %41 = phi i32 [ %.pre27, %._crit_edge26 ], [ %25, %24 ]
  %indvars.iv.next = add nuw nsw i64 %indvars.iv, 1
  %42 = sext i32 %41 to i64
  %43 = icmp slt i64 %indvars.iv.next, %42
  br i1 %43, label %24, label %._crit_edge, !llvm.loop !118

._crit_edge:                                      ; preds = %40, %15
  %44 = getelementptr inbounds nuw i8, ptr %0, i64 56
  %45 = load ptr, ptr %44, align 8, !tbaa !58
  %46 = load ptr, ptr %45, align 8, !tbaa !59
  %47 = tail call fastcc i32 @output_frame(ptr noundef %46)
  br label %48

48:                                               ; preds = %._crit_edge, %35
  %.018 = phi i32 [ 0, %35 ], [ %47, %._crit_edge ]
  ret i32 %.018
}